target datalayout = "e-m:e-p270:32:32-p271:32:32-p272:64:64-i64:64-i128:128-f80:128-n8:16:32:64-S128"
target triple = "x86_64-pc-linux-gnu"

%struct.pmix_lock_t = type { i32, %struct.pmix_mutex_t, %union.pthread_cond_t, i8 }
%struct.pmix_mutex_t = type { %struct.pmix_object_t, %union.pthread_mutex_t }
%struct.pmix_object_t = type { %union.pthread_mutex_t, ptr, i32, %struct.pmix_tma }
%struct.pmix_tma = type { ptr, ptr, ptr, ptr, ptr, ptr, ptr, ptr }
%union.pthread_mutex_t = type { %struct.__pthread_mutex_s }
%struct.__pthread_mutex_s = type { i32, i32, i32, i32, i32, i16, i16, %struct.__pthread_internal_list }
%struct.__pthread_internal_list = type { ptr, ptr }
%union.pthread_cond_t = type { %struct.__pthread_cond_s }
%struct.__pthread_cond_s = type { %union.__atomic_wide_counter, %union.__atomic_wide_counter, [2 x i32], [2 x i32], i32, i32, [2 x i32] }
%union.__atomic_wide_counter = type { i64 }
%struct.pmix_value = type { i16, %union.anon.9 }
%union.anon.9 = type { %struct.pmix_envar_t }
%struct.pmix_envar_t = type { ptr, ptr, i8 }
%struct.timeval = type { i64, i64 }
%struct.pmix_list_t = type { %struct.pmix_object_t, %struct.pmix_list_item_t, i64 }
%struct.pmix_list_item_t = type { %struct.pmix_object_t, ptr, ptr, i32 }
%struct.pmix_cb_t = type { %struct.pmix_list_item_t, %struct.event, %struct.pmix_lock_t, i8, i32, i32, i8, %struct.pmix_buffer_t, %union.anon.8, i64, ptr, %struct.pmix_name_t, ptr, ptr, ptr, ptr, i64, ptr, i64, ptr, i8, i64, %struct.pmix_list_t, i8, ptr, i8, ptr, ptr }
%struct.event = type { %struct.event_callback, %union.anon.0, i32, ptr, %union.anon.2, i16, i16, %struct.timeval }
%struct.event_callback = type { %struct.anon, i16, i8, i8, %union.anon, ptr }
%struct.anon = type { ptr, ptr }
%union.anon = type { ptr }
%union.anon.0 = type { %struct.anon.1 }
%struct.anon.1 = type { ptr, ptr }
%union.anon.2 = type { %struct.anon.3 }
%struct.anon.3 = type { %struct.anon.4, %struct.timeval }
%struct.anon.4 = type { ptr, ptr }
%struct.pmix_buffer_t = type { %struct.pmix_object_t, i8, ptr, ptr, ptr, i64, i64 }
%union.anon.8 = type { ptr }
%struct.pmix_name_t = type { ptr, i32 }
%struct.pmix_info = type { [512 x i8], i32, %struct.pmix_value }

; Function Attrs: inlinehint nounwind uwtable
define internal void @pmix_mutex_unlock(ptr noundef %0) #2 {
  %2 = alloca ptr, align 8
  store ptr %0, ptr %2, align 8, !tbaa !72
  %3 = load ptr, ptr %2, align 8, !tbaa !72
  %4 = getelementptr inbounds nuw %struct.pmix_mutex_t, ptr %3, i32 0, i32 1
  %5 = call i32 @pthread_mutex_unlock(ptr noundef %4) #10
  ret void
}

; Function Attrs: inlinehint nounwind uwtable
define internal void @pmix_atomic_wmb() #2 {
  fence release
  ret void
}

; Function Attrs: inlinehint nounwind uwtable
define internal void @pmix_mutex_lock(ptr noundef %0) #2 {
  %2 = alloca ptr, align 8
  store ptr %0, ptr %2, align 8, !tbaa !72
  %3 = load ptr, ptr %2, align 8, !tbaa !72
  %4 = getelementptr inbounds nuw %struct.pmix_mutex_t, ptr %3, i32 0, i32 1
  %5 = call i32 @pthread_mutex_lock(ptr noundef %4) #10
  ret void
}

; Function Attrs: nounwind uwtable
define internal void @acb(i32 noundef %0, ptr noundef %1, i64 noundef %2, ptr noundef %3, ptr noundef %4, ptr noundef %5) #0 {
  %7 = alloca i32, align 4
  %8 = alloca ptr, align 8
  %9 = alloca i64, align 8
  %10 = alloca ptr, align 8
  %11 = alloca ptr, align 8
  %12 = alloca ptr, align 8
  %13 = alloca ptr, align 8
  %14 = alloca i64, align 8
  store i32 %0, ptr %7, align 4, !tbaa !51
  store ptr %1, ptr %8, align 8, !tbaa !10
  store i64 %2, ptr %9, align 8, !tbaa !8
  store ptr %3, ptr %10, align 8, !tbaa !87
  store ptr %4, ptr %11, align 8, !tbaa !87
  store ptr %5, ptr %12, align 8, !tbaa !87
  call void @llvm.lifetime.start.p0(i64 8, ptr %13) #10
  %15 = load ptr, ptr %10, align 8, !tbaa !87
  store ptr %15, ptr %13, align 8, !tbaa !87
  call void @llvm.lifetime.start.p0(i64 8, ptr %14) #10
  %16 = load i32, ptr %7, align 4, !tbaa !51
  %17 = load ptr, ptr %13, align 8, !tbaa !87
  %18 = getelementptr inbounds nuw %struct.pmix_cb_t, ptr %17, i32 0, i32 4
  store i32 %16, ptr %18, align 4, !tbaa !69
  %19 = load i64, ptr %9, align 8, !tbaa !8
  %20 = icmp ult i64 0, %19
  br i1 %20, label %21, label %47

21:                                               ; preds = %6
  %22 = load i64, ptr %9, align 8, !tbaa !8
  %23 = call ptr @PMIx_Info_create(i64 noundef %22)
  %24 = load ptr, ptr %13, align 8, !tbaa !87
  %25 = getelementptr inbounds nuw %struct.pmix_cb_t, ptr %24, i32 0, i32 17
  store ptr %23, ptr %25, align 8, !tbaa !71
  %26 = load i64, ptr %9, align 8, !tbaa !8
  %27 = load ptr, ptr %13, align 8, !tbaa !87
  %28 = getelementptr inbounds nuw %struct.pmix_cb_t, ptr %27, i32 0, i32 18
  store i64 %26, ptr %28, align 8, !tbaa !70
  store i64 0, ptr %14, align 8, !tbaa !8
  br label %29

29:                                               ; preds = %43, %21
  %30 = load i64, ptr %14, align 8, !tbaa !8
  %31 = load i64, ptr %9, align 8, !tbaa !8
  %32 = icmp ult i64 %30, %31
  br i1 %32, label %33, label %46

33:                                               ; preds = %29
  %34 = load ptr, ptr %13, align 8, !tbaa !87
  %35 = getelementptr inbounds nuw %struct.pmix_cb_t, ptr %34, i32 0, i32 17
  %36 = load ptr, ptr %35, align 8, !tbaa !71
  %37 = load i64, ptr %14, align 8, !tbaa !8
  %38 = getelementptr inbounds nuw %struct.pmix_info, ptr %36, i64 %37
  %39 = load ptr, ptr %8, align 8, !tbaa !10
  %40 = load i64, ptr %14, align 8, !tbaa !8
  %41 = getelementptr inbounds nuw %struct.pmix_info, ptr %39, i64 %40
  %42 = call i32 @PMIx_Info_xfer(ptr noundef %38, ptr noundef %41)
  br label %43

43:                                               ; preds = %33
  %44 = load i64, ptr %14, align 8, !tbaa !8
  %45 = add i64 %44, 1
  store i64 %45, ptr %14, align 8, !tbaa !8
  br label %29, !llvm.loop !129

46:                                               ; preds = %29
  br label %47

47:                                               ; preds = %46, %6
  %48 = load ptr, ptr %11, align 8, !tbaa !87
  %49 = icmp ne ptr null, %48
  br i1 %49, label %50, label %53

50:                                               ; preds = %47
  %51 = load ptr, ptr %11, align 8, !tbaa !87
  %52 = load ptr, ptr %12, align 8, !tbaa !87
  call void %51(ptr noundef %52)
  br label %53

53:                                               ; preds = %50, %47
  br label %54

54:                                               ; preds = %53
  %55 = load ptr, ptr %13, align 8, !tbaa !87
  %56 = getelementptr inbounds nuw %struct.pmix_cb_t, ptr %55, i32 0, i32 2
  %57 = getelementptr inbounds nuw %struct.pmix_lock_t, ptr %56, i32 0, i32 1
  call void @pmix_mutex_lock(ptr noundef %57)
  %58 = load ptr, ptr %13, align 8, !tbaa !87
  %59 = getelementptr inbounds nuw %struct.pmix_cb_t, ptr %58, i32 0, i32 2
  %60 = getelementptr inbounds nuw %struct.pmix_lock_t, ptr %59, i32 0, i32 3
  store volatile i8 0, ptr %60, align 8, !tbaa !56
  call void @pmix_atomic_wmb()
  %61 = load ptr, ptr %13, align 8, !tbaa !87
  %62 = getelementptr inbounds nuw %struct.pmix_cb_t, ptr %61, i32 0, i32 2
  %63 = getelementptr inbounds nuw %struct.pmix_lock_t, ptr %62, i32 0, i32 2
  %64 = call i32 @pthread_cond_broadcast(ptr noundef %63) #10
  %65 = load ptr, ptr %13, align 8, !tbaa !87
  %66 = getelementptr inbounds nuw %struct.pmix_cb_t, ptr %65, i32 0, i32 2
  %67 = getelementptr inbounds nuw %struct.pmix_lock_t, ptr %66, i32 0, i32 1
  call void @pmix_mutex_unlock(ptr noundef %67)
  br label %68

68:                                               ; preds = %54
  br label %69

69:                                               ; preds = %68
  call void @llvm.lifetime.end.p0(i64 8, ptr %14) #10
  call void @llvm.lifetime.end.p0(i64 8, ptr %13) #10
  ret void
}